Certificate:
    Data:
        Version: 3 (0x2)
        Serial Number: 0 (0x0)
        Signature Algorithm: sha1WithRSAEncryption
        Issuer: C=US, ST=Connecticut, O=TopCoder Inc, CN=TopCoder Prod Certificate Authority/emailAddress=certs@topcoder.com
        Validity
            Not Before: Mar 25 20:24:32 2010 GMT
            Not After : Mar 22 20:24:32 2020 GMT
        Subject: C=US, ST=Connecticut, O=TopCoder Inc, CN=TopCoder Prod Certificate Authority/emailAddress=certs@topcoder.com
        Subject Public Key Info:
            Public Key Algorithm: rsaEncryption
            RSA Public Key: (1024 bit)
                Modulus (1024 bit):
                    00:be:23:19:51:d9:68:65:27:4c:69:1f:48:79:8d:
                    07:36:da:0e:2e:00:41:8c:10:8f:d1:5b:8f:2d:4d:
                    56:fd:2e:db:eb:1a:14:86:4d:60:5b:c2:58:c7:b2:
                    0f:bb:24:85:d0:c6:58:17:e3:4c:e4:e7:ce:a7:13:
                    59:e6:2c:6f:e4:88:41:4d:ff:5d:39:8a:82:bd:5a:
                    87:69:94:59:45:cb:06:36:a4:62:67:c3:5d:9d:ea:
                    bd:c0:80:f4:f0:58:1f:74:c3:cc:74:2e:bf:6c:e9:
                    8f:48:58:3d:26:1d:05:10:91:0d:c3:28:f7:db:5d:
                    ea:74:6f:d2:93:b2:15:8e:db
                Exponent: 65537 (0x10001)
        X509v3 extensions:
            X509v3 Basic Constraints:
                CA:FALSE
            Netscape Comment:
                OpenSSL Generated Certificate
            X509v3 Subject Key Identifier:
                3B:E1:36:FA:B4:10:0B:CF:9B:01:CA:FD:BD:A4:5A:99:8D:53:F3:E5
            X509v3 Authority Key Identifier:
                keyid:3B:E1:36:FA:B4:10:0B:CF:9B:01:CA:FD:BD:A4:5A:99:8D:53:F3:E5

    Signature Algorithm: sha1WithRSAEncryption
        5c:23:f4:0c:db:d9:d7:bb:b0:b6:62:0a:09:bd:31:40:ac:44:
        5e:d3:04:e2:1e:de:78:c0:f2:32:75:20:e3:78:11:64:55:e8:
        c9:eb:ea:4d:31:fc:e9:0e:3a:c6:e9:02:cf:fd:2a:e3:ef:21:
        f3:98:6f:33:7b:37:9d:a9:90:fd:1f:41:d5:9d:61:66:74:8f:
        86:f1:73:b9:9c:85:9e:56:72:db:f1:88:d3:7a:10:8a:4b:57:
        a0:46:99:2a:96:84:41:65:50:7a:e8:b4:95:0a:be:10:fe:c6:
        d4:30:ae:b7:b3:34:03:ca:9c:8d:4d:9c:05:b6:66:21:06:4d:
        b5:5c
-----BEGIN CERTIFICATE-----
MIIDCTCCAnKgAwIBAgIBADANBgkqhkiG9w0BAQUFADCBizELMAkGA1UEBhMCVVMx
FDASBgNVBAgTC0Nvbm5lY3RpY3V0MRUwEwYDVQQKEwxUb3BDb2RlciBJbmMxLDAq
BgNVBAMTI1RvcENvZGVyIFByb2QgQ2VydGlmaWNhdGUgQXV0aG9yaXR5MSEwHwYJ
KoZIhvcNAQkBFhJjZXJ0c0B0b3Bjb2Rlci5jb20wHhcNMTAwMzI1MjAyNDMyWhcN
MjAwMzIyMjAyNDMyWjCBizELMAkGA1UEBhMCVVMxFDASBgNVBAgTC0Nvbm5lY3Rp
Y3V0MRUwEwYDVQQKEwxUb3BDb2RlciBJbmMxLDAqBgNVBAMTI1RvcENvZGVyIFBy
b2QgQ2VydGlmaWNhdGUgQXV0aG9yaXR5MSEwHwYJKoZIhvcNAQkBFhJjZXJ0c0B0
b3Bjb2Rlci5jb20wgZ8wDQYJKoZIhvcNAQEBBQADgY0AMIGJAoGBAL4jGVHZaGUn
TGkfSHmNBzbaDi4AQYwQj9Fbjy1NVv0u2+saFIZNYFvCWMeyD7skhdDGWBfjTOTn
zqcTWeYsb+SIQU3/XTmKgr1ah2mUWUXLBjakYmfDXZ3qvcCA9PBYH3TDzHQuv2zp
j0hYPSYdBRCRDcMo99td6nRv0pOyFY7bAgMBAAGjezB5MAkGA1UdEwQCMAAwLAYJ
YIZIAYb4QgENBB8WHU9wZW5TU0wgR2VuZXJhdGVkIENlcnRpZmljYXRlMB0GA1Ud
DgQWBBQ74Tb6tBALz5sByv29pFqZjVPz5TAfBgNVHSMEGDAWgBQ74Tb6tBALz5sB
yv29pFqZjVPz5TANBgkqhkiG9w0BAQUFAAOBgQBcI/QM29nXu7C2YgoJvTFArERe
0wTiHt54wPIydSDjeBFkVejJ6+pNMfzpDjrG6QLP/Srj7yHzmG8zezedqZD9H0HV
nWFmdI+G8XO5nIWeVnLb8YjTehCKS1egRpkqloRBZVB66LSVCr4Q/sbUMK63szQD
ypyNTZwFtmYhBk21XA==
-----END CERTIFICATE-----